target datalayout = "e-m:e-p270:32:32-p271:32:32-p272:64:64-i64:64-i128:128-f80:128-n8:16:32:64-S128"
target triple = "x86_64-pc-linux-gnu"

%struct.PROV_CHACHA20_POLY1305_CTX = type { %struct.prov_cipher_ctx_st, %struct.PROV_CHACHA20_CTX, %struct.poly1305_context, [3 x i32], [16 x i8], [16 x i8], %struct.anon.1, i8, i64, i64, i64 }
%struct.prov_cipher_ctx_st = type { [16 x i8], [16 x i8], [16 x i8], ptr, %union.anon, i32, i64, i64, i64, i64, i32, i8, i32, ptr, i32, i64, i32, i64, i32, ptr, ptr, ptr }
%union.anon = type { ptr }
%struct.PROV_CHACHA20_CTX = type { %struct.prov_cipher_ctx_st, %union.anon.0, [4 x i32], [64 x i8], i32 }
%union.anon.0 = type { double, [24 x i8] }
%struct.poly1305_context = type { [24 x double], [4 x i32], [16 x i8], i64, %struct.anon }
%struct.anon = type { ptr, ptr }
%struct.anon.1 = type { i64, i64 }
%struct.prov_cipher_hw_chacha_aead_st = type { %struct.prov_cipher_hw_st, ptr, ptr, ptr, ptr }
%struct.prov_cipher_hw_st = type { ptr, ptr, ptr }
%struct.ossl_param_st = type { ptr, i32, ptr, i64, i64 }

@.str = private unnamed_addr constant [72 x i8] c"../openssl/providers/implementations/ciphers/cipher_chacha20_poly1305.c\00", align 1
@.str.1 = private unnamed_addr constant [6 x i8] c"ivlen\00", align 1
@.str.2 = private unnamed_addr constant [7 x i8] c"keylen\00", align 1
@.str.5 = private unnamed_addr constant [4 x i8] c"tag\00", align 1
@__func__.chacha20_poly1305_set_ctx_params = private unnamed_addr constant [33 x i8] c"chacha20_poly1305_set_ctx_params\00", align 1
@.str.7 = private unnamed_addr constant [7 x i8] c"tlsaad\00", align 1
@.str.8 = private unnamed_addr constant [11 x i8] c"tlsivfixed\00", align 1

; Function Attrs: inlinehint nounwind uwtable
define internal i32 @ossl_param_is_empty(ptr noundef %0) #4 {
  %2 = alloca ptr, align 8
  store ptr %0, ptr %2, align 8, !tbaa !24
  %3 = load ptr, ptr %2, align 8, !tbaa !24
  %4 = icmp eq ptr %3, null
  br i1 %4, label %10, label %5

5:                                                ; preds = %1
  %6 = load ptr, ptr %2, align 8, !tbaa !24
  %7 = getelementptr inbounds nuw %struct.ossl_param_st, ptr %6, i32 0, i32 0
  %8 = load ptr, ptr %7, align 8, !tbaa !47
  %9 = icmp eq ptr %8, null
  br label %10

10:                                               ; preds = %5, %1
  %11 = phi i1 [ true, %1 ], [ %9, %5 ]
  %12 = zext i1 %11 to i32
  ret i32 %12
}

; Function Attrs: nounwind uwtable
define internal i32 @chacha20_poly1305_set_ctx_params(ptr noundef %0, ptr noundef %1) #0 {
  %3 = alloca i32, align 4
  %4 = alloca ptr, align 8
  %5 = alloca ptr, align 8
  %6 = alloca ptr, align 8
  %7 = alloca i64, align 8
  %8 = alloca ptr, align 8
  %9 = alloca ptr, align 8
  %10 = alloca i32, align 4
  store ptr %0, ptr %4, align 8, !tbaa !3
  store ptr %1, ptr %5, align 8, !tbaa !24
  call void @llvm.lifetime.start.p0(i64 8, ptr %6) #5
  call void @llvm.lifetime.start.p0(i64 8, ptr %7) #5
  call void @llvm.lifetime.start.p0(i64 8, ptr %8) #5
  %11 = load ptr, ptr %4, align 8, !tbaa !3
  store ptr %11, ptr %8, align 8, !tbaa !3
  call void @llvm.lifetime.start.p0(i64 8, ptr %9) #5
  %12 = load ptr, ptr %8, align 8, !tbaa !3
  %13 = getelementptr inbounds nuw %struct.PROV_CHACHA20_POLY1305_CTX, ptr %12, i32 0, i32 0
  %14 = getelementptr inbounds nuw %struct.prov_cipher_ctx_st, ptr %13, i32 0, i32 19
  %15 = load ptr, ptr %14, align 8, !tbaa !44
  store ptr %15, ptr %9, align 8, !tbaa !30
  %16 = load ptr, ptr %5, align 8, !tbaa !24
  %17 = call i32 @ossl_param_is_empty(ptr noundef %16)
  %18 = icmp ne i32 %17, 0
  br i1 %18, label %19, label %20

19:                                               ; preds = %2
  store i32 1, ptr %3, align 4
  store i32 1, ptr %10, align 4
  br label %163

20:                                               ; preds = %2
  %21 = load ptr, ptr %5, align 8, !tbaa !24
  %22 = call ptr @OSSL_PARAM_locate_const(ptr noundef %21, ptr noundef @.str.2)
  store ptr %22, ptr %6, align 8, !tbaa !24
  %23 = load ptr, ptr %6, align 8, !tbaa !24
  %24 = icmp ne ptr %23, null
  br i1 %24, label %25, label %35

25:                                               ; preds = %20
  %26 = load ptr, ptr %6, align 8, !tbaa !24
  %27 = call i32 @OSSL_PARAM_get_size_t(ptr noundef %26, ptr noundef %7)
  %28 = icmp ne i32 %27, 0
  br i1 %28, label %30, label %29

29:                                               ; preds = %25
  call void @ERR_new()
  call void @ERR_set_debug(ptr noundef @.str, i32 noundef 176, ptr noundef @__func__.chacha20_poly1305_set_ctx_params)
  call void (i32, i32, ptr, ...) @ERR_set_error(i32 noundef 57, i32 noundef 103, ptr noundef null)
  store i32 0, ptr %3, align 4
  store i32 1, ptr %10, align 4
  br label %163

30:                                               ; preds = %25
  %31 = load i64, ptr %7, align 8, !tbaa !23
  %32 = icmp ne i64 %31, 32
  br i1 %32, label %33, label %34

33:                                               ; preds = %30
  call void @ERR_new()
  call void @ERR_set_debug(ptr noundef @.str, i32 noundef 180, ptr noundef @__func__.chacha20_poly1305_set_ctx_params)
  call void (i32, i32, ptr, ...) @ERR_set_error(i32 noundef 57, i32 noundef 105, ptr noundef null)
  store i32 0, ptr %3, align 4
  store i32 1, ptr %10, align 4
  br label %163

34:                                               ; preds = %30
  br label %35

35:                                               ; preds = %34, %20
  %36 = load ptr, ptr %5, align 8, !tbaa !24
  %37 = call ptr @OSSL_PARAM_locate_const(ptr noundef %36, ptr noundef @.str.1)
  store ptr %37, ptr %6, align 8, !tbaa !24
  %38 = load ptr, ptr %6, align 8, !tbaa !24
  %39 = icmp ne ptr %38, null
  br i1 %39, label %40, label %50

40:                                               ; preds = %35
  %41 = load ptr, ptr %6, align 8, !tbaa !24
  %42 = call i32 @OSSL_PARAM_get_size_t(ptr noundef %41, ptr noundef %7)
  %43 = icmp ne i32 %42, 0
  br i1 %43, label %45, label %44

44:                                               ; preds = %40
  call void @ERR_new()
  call void @ERR_set_debug(ptr noundef @.str, i32 noundef 187, ptr noundef @__func__.chacha20_poly1305_set_ctx_params)
  call void (i32, i32, ptr, ...) @ERR_set_error(i32 noundef 57, i32 noundef 103, ptr noundef null)
  store i32 0, ptr %3, align 4
  store i32 1, ptr %10, align 4
  br label %163

45:                                               ; preds = %40
  %46 = load i64, ptr %7, align 8, !tbaa !23
  %47 = icmp ne i64 %46, 12
  br i1 %47, label %48, label %49

48:                                               ; preds = %45
  call void @ERR_new()
  call void @ERR_set_debug(ptr noundef @.str, i32 noundef 191, ptr noundef @__func__.chacha20_poly1305_set_ctx_params)
  call void (i32, i32, ptr, ...) @ERR_set_error(i32 noundef 57, i32 noundef 109, ptr noundef null)
  store i32 0, ptr %3, align 4
  store i32 1, ptr %10, align 4
  br label %163

49:                                               ; preds = %45
  br label %50

50:                                               ; preds = %49, %35
  %51 = load ptr, ptr %5, align 8, !tbaa !24
  %52 = call ptr @OSSL_PARAM_locate_const(ptr noundef %51, ptr noundef @.str.5)
  store ptr %52, ptr %6, align 8, !tbaa !24
  %53 = load ptr, ptr %6, align 8, !tbaa !24
  %54 = icmp ne ptr %53, null
  br i1 %54, label %55, label %103

55:                                               ; preds = %50
  %56 = load ptr, ptr %6, align 8, !tbaa !24
  %57 = getelementptr inbounds nuw %struct.ossl_param_st, ptr %56, i32 0, i32 1
  %58 = load i32, ptr %57, align 8, !tbaa !40
  %59 = icmp ne i32 %58, 5
  br i1 %59, label %60, label %61

60:                                               ; preds = %55
  call void @ERR_new()
  call void @ERR_set_debug(ptr noundef @.str, i32 noundef 199, ptr noundef @__func__.chacha20_poly1305_set_ctx_params)
  call void (i32, i32, ptr, ...) @ERR_set_error(i32 noundef 57, i32 noundef 103, ptr noundef null)
  store i32 0, ptr %3, align 4
  store i32 1, ptr %10, align 4
  br label %163

61:                                               ; preds = %55
  %62 = load ptr, ptr %6, align 8, !tbaa !24
  %63 = getelementptr inbounds nuw %struct.ossl_param_st, ptr %62, i32 0, i32 3
  %64 = load i64, ptr %63, align 8, !tbaa !42
  %65 = icmp eq i64 %64, 0
  br i1 %65, label %71, label %66

66:                                               ; preds = %61
  %67 = load ptr, ptr %6, align 8, !tbaa !24
  %68 = getelementptr inbounds nuw %struct.ossl_param_st, ptr %67, i32 0, i32 3
  %69 = load i64, ptr %68, align 8, !tbaa !42
  %70 = icmp ugt i64 %69, 16
  br i1 %70, label %71, label %72

71:                                               ; preds = %66, %61
  call void @ERR_new()
  call void @ERR_set_debug(ptr noundef @.str, i32 noundef 203, ptr noundef @__func__.chacha20_poly1305_set_ctx_params)
  call void (i32, i32, ptr, ...) @ERR_set_error(i32 noundef 57, i32 noundef 118, ptr noundef null)
  store i32 0, ptr %3, align 4
  store i32 1, ptr %10, align 4
  br label %163

72:                                               ; preds = %66
  %73 = load ptr, ptr %6, align 8, !tbaa !24
  %74 = getelementptr inbounds nuw %struct.ossl_param_st, ptr %73, i32 0, i32 2
  %75 = load ptr, ptr %74, align 8, !tbaa !43
  %76 = icmp ne ptr %75, null
  br i1 %76, label %77, label %97

77:                                               ; preds = %72
  %78 = load ptr, ptr %8, align 8, !tbaa !3
  %79 = getelementptr inbounds nuw %struct.PROV_CHACHA20_POLY1305_CTX, ptr %78, i32 0, i32 0
  %80 = getelementptr inbounds nuw %struct.prov_cipher_ctx_st, ptr %79, i32 0, i32 11
  %81 = load i8, ptr %80, align 4
  %82 = lshr i8 %81, 1
  %83 = and i8 %82, 1
  %84 = zext i8 %83 to i32
  %85 = icmp ne i32 %84, 0
  br i1 %85, label %86, label %87

86:                                               ; preds = %77
  call void @ERR_new()
  call void @ERR_set_debug(ptr noundef @.str, i32 noundef 208, ptr noundef @__func__.chacha20_poly1305_set_ctx_params)
  call void (i32, i32, ptr, ...) @ERR_set_error(i32 noundef 57, i32 noundef 120, ptr noundef null)
  store i32 0, ptr %3, align 4
  store i32 1, ptr %10, align 4
  br label %163

87:                                               ; preds = %77
  %88 = load ptr, ptr %8, align 8, !tbaa !3
  %89 = getelementptr inbounds nuw %struct.PROV_CHACHA20_POLY1305_CTX, ptr %88, i32 0, i32 4
  %90 = getelementptr inbounds [16 x i8], ptr %89, i64 0, i64 0
  %91 = load ptr, ptr %6, align 8, !tbaa !24
  %92 = getelementptr inbounds nuw %struct.ossl_param_st, ptr %91, i32 0, i32 2
  %93 = load ptr, ptr %92, align 8, !tbaa !43
  %94 = load ptr, ptr %6, align 8, !tbaa !24
  %95 = getelementptr inbounds nuw %struct.ossl_param_st, ptr %94, i32 0, i32 3
  %96 = load i64, ptr %95, align 8, !tbaa !42
  call void @llvm.memcpy.p0.p0.i64(ptr align 4 %90, ptr align 1 %93, i64 %96, i1 false)
  br label %97

97:                                               ; preds = %87, %72
  %98 = load ptr, ptr %6, align 8, !tbaa !24
  %99 = getelementptr inbounds nuw %struct.ossl_param_st, ptr %98, i32 0, i32 3
  %100 = load i64, ptr %99, align 8, !tbaa !42
  %101 = load ptr, ptr %8, align 8, !tbaa !3
  %102 = getelementptr inbounds nuw %struct.PROV_CHACHA20_POLY1305_CTX, ptr %101, i32 0, i32 8
  store i64 %100, ptr %102, align 8, !tbaa !38
  br label %103

103:                                              ; preds = %97, %50
  %104 = load ptr, ptr %5, align 8, !tbaa !24
  %105 = call ptr @OSSL_PARAM_locate_const(ptr noundef %104, ptr noundef @.str.7)
  store ptr %105, ptr %6, align 8, !tbaa !24
  %106 = load ptr, ptr %6, align 8, !tbaa !24
  %107 = icmp ne ptr %106, null
  br i1 %107, label %108, label %135

108:                                              ; preds = %103
  %109 = load ptr, ptr %6, align 8, !tbaa !24
  %110 = getelementptr inbounds nuw %struct.ossl_param_st, ptr %109, i32 0, i32 1
  %111 = load i32, ptr %110, align 8, !tbaa !40
  %112 = icmp ne i32 %111, 5
  br i1 %112, label %113, label %114

113:                                              ; preds = %108
  call void @ERR_new()
  call void @ERR_set_debug(ptr noundef @.str, i32 noundef 219, ptr noundef @__func__.chacha20_poly1305_set_ctx_params)
  call void (i32, i32, ptr, ...) @ERR_set_error(i32 noundef 57, i32 noundef 103, ptr noundef null)
  store i32 0, ptr %3, align 4
  store i32 1, ptr %10, align 4
  br label %163

114:                                              ; preds = %108
  %115 = load ptr, ptr %9, align 8, !tbaa !30
  %116 = getelementptr inbounds nuw %struct.prov_cipher_hw_chacha_aead_st, ptr %115, i32 0, i32 3
  %117 = load ptr, ptr %116, align 8, !tbaa !45
  %118 = load ptr, ptr %8, align 8, !tbaa !3
  %119 = getelementptr inbounds nuw %struct.PROV_CHACHA20_POLY1305_CTX, ptr %118, i32 0, i32 0
  %120 = load ptr, ptr %6, align 8, !tbaa !24
  %121 = getelementptr inbounds nuw %struct.ossl_param_st, ptr %120, i32 0, i32 2
  %122 = load ptr, ptr %121, align 8, !tbaa !43
  %123 = load ptr, ptr %6, align 8, !tbaa !24
  %124 = getelementptr inbounds nuw %struct.ossl_param_st, ptr %123, i32 0, i32 3
  %125 = load i64, ptr %124, align 8, !tbaa !42
  %126 = call i32 %117(ptr noundef %119, ptr noundef %122, i64 noundef %125)
  %127 = sext i32 %126 to i64
  store i64 %127, ptr %7, align 8, !tbaa !23
  %128 = load i64, ptr %7, align 8, !tbaa !23
  %129 = icmp eq i64 %128, 0
  br i1 %129, label %130, label %131

130:                                              ; preds = %114
  call void @ERR_new()
  call void @ERR_set_debug(ptr noundef @.str, i32 noundef 224, ptr noundef @__func__.chacha20_poly1305_set_ctx_params)
  call void (i32, i32, ptr, ...) @ERR_set_error(i32 noundef 57, i32 noundef 115, ptr noundef null)
  store i32 0, ptr %3, align 4
  store i32 1, ptr %10, align 4
  br label %163

131:                                              ; preds = %114
  %132 = load i64, ptr %7, align 8, !tbaa !23
  %133 = load ptr, ptr %8, align 8, !tbaa !3
  %134 = getelementptr inbounds nuw %struct.PROV_CHACHA20_POLY1305_CTX, ptr %133, i32 0, i32 10
  store i64 %132, ptr %134, align 8, !tbaa !39
  br label %135

135:                                              ; preds = %131, %103
  %136 = load ptr, ptr %5, align 8, !tbaa !24
  %137 = call ptr @OSSL_PARAM_locate_const(ptr noundef %136, ptr noundef @.str.8)
  store ptr %137, ptr %6, align 8, !tbaa !24
  %138 = load ptr, ptr %6, align 8, !tbaa !24
  %139 = icmp ne ptr %138, null
  br i1 %139, label %140, label %162

140:                                              ; preds = %135
  %141 = load ptr, ptr %6, align 8, !tbaa !24
  %142 = getelementptr inbounds nuw %struct.ossl_param_st, ptr %141, i32 0, i32 1
  %143 = load i32, ptr %142, align 8, !tbaa !40
  %144 = icmp ne i32 %143, 5
  br i1 %144, label %145, label %146

145:                                              ; preds = %140
  call void @ERR_new()
  call void @ERR_set_debug(ptr noundef @.str, i32 noundef 233, ptr noundef @__func__.chacha20_poly1305_set_ctx_params)
  call void (i32, i32, ptr, ...) @ERR_set_error(i32 noundef 57, i32 noundef 103, ptr noundef null)
  store i32 0, ptr %3, align 4
  store i32 1, ptr %10, align 4
  br label %163

146:                                              ; preds = %140
  %147 = load ptr, ptr %9, align 8, !tbaa !30
  %148 = getelementptr inbounds nuw %struct.prov_cipher_hw_chacha_aead_st, ptr %147, i32 0, i32 4
  %149 = load ptr, ptr %148, align 8, !tbaa !46
  %150 = load ptr, ptr %8, align 8, !tbaa !3
  %151 = getelementptr inbounds nuw %struct.PROV_CHACHA20_POLY1305_CTX, ptr %150, i32 0, i32 0
  %152 = load ptr, ptr %6, align 8, !tbaa !24
  %153 = getelementptr inbounds nuw %struct.ossl_param_st, ptr %152, i32 0, i32 2
  %154 = load ptr, ptr %153, align 8, !tbaa !43
  %155 = load ptr, ptr %6, align 8, !tbaa !24
  %156 = getelementptr inbounds nuw %struct.ossl_param_st, ptr %155, i32 0, i32 3
  %157 = load i64, ptr %156, align 8, !tbaa !42
  %158 = call i32 %149(ptr noundef %151, ptr noundef %154, i64 noundef %157)
  %159 = icmp eq i32 %158, 0
  br i1 %159, label %160, label %161

160:                                              ; preds = %146
  call void @ERR_new()
  call void @ERR_set_debug(ptr noundef @.str, i32 noundef 237, ptr noundef @__func__.chacha20_poly1305_set_ctx_params)
  call void (i32, i32, ptr, ...) @ERR_set_error(i32 noundef 57, i32 noundef 109, ptr noundef null)
  store i32 0, ptr %3, align 4
  store i32 1, ptr %10, align 4
  br label %163

161:                                              ; preds = %146
  br label %162

162:                                              ; preds = %161, %135
  store i32 1, ptr %3, align 4
  store i32 1, ptr %10, align 4
  br label %163

163:                                              ; preds = %162, %160, %145, %130, %113, %86, %71, %60, %48, %44, %33, %29, %19
  call void @llvm.lifetime.end.p0(i64 8, ptr %9) #5
  call void @llvm.lifetime.end.p0(i64 8, ptr %8) #5
  call void @llvm.lifetime.end.p0(i64 8, ptr %7) #5
  call void @llvm.lifetime.end.p0(i64 8, ptr %6) #5
  %164 = load i32, ptr %3, align 4
  ret i32 %164
}