; Function Attrs: nounwind uwtable
define internal range(i32 0, 2) i32 @chacha20_poly1305_set_ctx_params(ptr noundef %0, ptr noundef %1) #0 {
  %3 = alloca i64, align 8
  call void @llvm.lifetime.start.p0(i64 8, ptr nonnull %3) #5
  %4 = getelementptr inbounds nuw i8, ptr %0, i64 168
  %5 = load ptr, ptr %4, align 8, !tbaa !33
  %6 = icmp eq ptr %1, null
  br i1 %6, label %ossl_param_is_empty.exit.thread, label %ossl_param_is_empty.exit

ossl_param_is_empty.exit:                         ; preds = %2
  %7 = load ptr, ptr %1, align 8, !tbaa !34
  %.not = icmp eq ptr %7, null
  br i1 %.not, label %ossl_param_is_empty.exit.thread, label %8

8:                                                ; preds = %ossl_param_is_empty.exit
  %9 = tail call ptr @OSSL_PARAM_locate_const(ptr noundef nonnull %1, ptr noundef nonnull @.str.2) #5
  %.not44 = icmp eq ptr %9, null
  br i1 %.not44, label %14, label %10

10:                                               ; preds = %8
  %11 = call i32 @OSSL_PARAM_get_size_t(ptr noundef nonnull %9, ptr noundef nonnull %3) #5
  %.not45 = icmp eq i32 %11, 0
  br i1 %.not45, label %ossl_param_is_empty.exit.thread.sink.split, label %12

12:                                               ; preds = %10
  %13 = load i64, ptr %3, align 8, !tbaa !25
  %.not46 = icmp eq i64 %13, 32
  br i1 %.not46, label %14, label %ossl_param_is_empty.exit.thread.sink.split

14:                                               ; preds = %12, %8
  %15 = call ptr @OSSL_PARAM_locate_const(ptr noundef nonnull %1, ptr noundef nonnull @.str.1) #5
  %.not47 = icmp eq ptr %15, null
  br i1 %.not47, label %20, label %16

16:                                               ; preds = %14
  %17 = call i32 @OSSL_PARAM_get_size_t(ptr noundef nonnull %15, ptr noundef nonnull %3) #5
  %.not48 = icmp eq i32 %17, 0
  br i1 %.not48, label %ossl_param_is_empty.exit.thread.sink.split, label %18

18:                                               ; preds = %16
  %19 = load i64, ptr %3, align 8, !tbaa !25
  %.not49 = icmp eq i64 %19, 12
  br i1 %.not49, label %20, label %ossl_param_is_empty.exit.thread.sink.split

20:                                               ; preds = %18, %14
  %21 = call ptr @OSSL_PARAM_locate_const(ptr noundef nonnull %1, ptr noundef nonnull @.str.5) #5
  %.not50 = icmp eq ptr %21, null
  br i1 %.not50, label %41, label %22

22:                                               ; preds = %20
  %23 = getelementptr inbounds nuw i8, ptr %21, i64 8
  %24 = load i32, ptr %23, align 8, !tbaa !29
  %.not51 = icmp eq i32 %24, 5
  br i1 %.not51, label %25, label %ossl_param_is_empty.exit.thread.sink.split

25:                                               ; preds = %22
  %26 = getelementptr inbounds nuw i8, ptr %21, i64 24
  %27 = load i64, ptr %26, align 8, !tbaa !31
  %28 = add i64 %27, -17
  %or.cond = icmp ult i64 %28, -16
  br i1 %or.cond, label %ossl_param_is_empty.exit.thread.sink.split, label %29

29:                                               ; preds = %25
  %30 = getelementptr inbounds nuw i8, ptr %21, i64 16
  %31 = load ptr, ptr %30, align 8, !tbaa !32
  %.not52 = icmp eq ptr %31, null
  br i1 %.not52, label %38, label %32

32:                                               ; preds = %29
  %33 = getelementptr inbounds nuw i8, ptr %0, i64 108
  %34 = load i8, ptr %33, align 4
  %35 = and i8 %34, 2
  %.not53 = icmp eq i8 %35, 0
  br i1 %.not53, label %36, label %ossl_param_is_empty.exit.thread.sink.split

36:                                               ; preds = %32
  %37 = getelementptr inbounds nuw i8, ptr %0, i64 764
  call void @llvm.memcpy.p0.p0.i64(ptr nonnull align 4 %37, ptr nonnull align 1 %31, i64 %27, i1 false)
  %.pre = load i64, ptr %26, align 8, !tbaa !31
  br label %38

38:                                               ; preds = %36, %29
  %39 = phi i64 [ %.pre, %36 ], [ %27, %29 ]
  %40 = getelementptr inbounds nuw i8, ptr %0, i64 824
  store i64 %39, ptr %40, align 8, !tbaa !27
  br label %41

41:                                               ; preds = %38, %20
  %42 = call ptr @OSSL_PARAM_locate_const(ptr noundef nonnull %1, ptr noundef nonnull @.str.7) #5
  %.not54 = icmp eq ptr %42, null
  br i1 %.not54, label %58, label %43

43:                                               ; preds = %41
  %44 = getelementptr inbounds nuw i8, ptr %42, i64 8
  %45 = load i32, ptr %44, align 8, !tbaa !29
  %.not55 = icmp eq i32 %45, 5
  br i1 %.not55, label %46, label %ossl_param_is_empty.exit.thread.sink.split

46:                                               ; preds = %43
  %47 = getelementptr inbounds nuw i8, ptr %5, i64 40
  %48 = load ptr, ptr %47, align 8, !tbaa !35
  %49 = getelementptr inbounds nuw i8, ptr %42, i64 16
  %50 = load ptr, ptr %49, align 8, !tbaa !32
  %51 = getelementptr inbounds nuw i8, ptr %42, i64 24
  %52 = load i64, ptr %51, align 8, !tbaa !31
  %53 = call i32 %48(ptr noundef nonnull %0, ptr noundef %50, i64 noundef %52) #5
  %54 = sext i32 %53 to i64
  store i64 %54, ptr %3, align 8, !tbaa !25
  %55 = icmp eq i32 %53, 0
  br i1 %55, label %ossl_param_is_empty.exit.thread.sink.split, label %56

56:                                               ; preds = %46
  %57 = getelementptr inbounds nuw i8, ptr %0, i64 840
  store i64 %54, ptr %57, align 8, !tbaa !28
  br label %58

58:                                               ; preds = %56, %41
  %59 = call ptr @OSSL_PARAM_locate_const(ptr noundef nonnull %1, ptr noundef nonnull @.str.8) #5
  %.not56 = icmp eq ptr %59, null
  br i1 %.not56, label %ossl_param_is_empty.exit.thread, label %60

60:                                               ; preds = %58
  %61 = getelementptr inbounds nuw i8, ptr %59, i64 8
  %62 = load i32, ptr %61, align 8, !tbaa !29
  %.not57 = icmp eq i32 %62, 5
  br i1 %.not57, label %63, label %ossl_param_is_empty.exit.thread.sink.split

63:                                               ; preds = %60
  %64 = getelementptr inbounds nuw i8, ptr %5, i64 48
  %65 = load ptr, ptr %64, align 8, !tbaa !36
  %66 = getelementptr inbounds nuw i8, ptr %59, i64 16
  %67 = load ptr, ptr %66, align 8, !tbaa !32
  %68 = getelementptr inbounds nuw i8, ptr %59, i64 24
  %69 = load i64, ptr %68, align 8, !tbaa !31
  %70 = call i32 %65(ptr noundef nonnull %0, ptr noundef %67, i64 noundef %69) #5
  %71 = icmp eq i32 %70, 0
  br i1 %71, label %ossl_param_is_empty.exit.thread.sink.split, label %ossl_param_is_empty.exit.thread

ossl_param_is_empty.exit.thread.sink.split:       ; preds = %63, %60, %46, %43, %32, %25, %22, %18, %16, %12, %10
  %.sink59 = phi i32 [ 176, %10 ], [ 180, %12 ], [ 187, %16 ], [ 191, %18 ], [ 199, %22 ], [ 203, %25 ], [ 208, %32 ], [ 219, %43 ], [ 224, %46 ], [ 233, %60 ], [ 237, %63 ]
  %.sink = phi i32 [ 103, %10 ], [ 105, %12 ], [ 103, %16 ], [ 109, %18 ], [ 103, %22 ], [ 118, %25 ], [ 120, %32 ], [ 103, %43 ], [ 115, %46 ], [ 103, %60 ], [ 109, %63 ]
  call void @ERR_new() #5
  call void @ERR_set_debug(ptr noundef nonnull @.str, i32 noundef %.sink59, ptr noundef nonnull @__func__.chacha20_poly1305_set_ctx_params) #5
  call void (i32, i32, ptr, ...) @ERR_set_error(i32 noundef 57, i32 noundef %.sink, ptr noundef null) #5
  br label %ossl_param_is_empty.exit.thread

ossl_param_is_empty.exit.thread:                  ; preds = %ossl_param_is_empty.exit.thread.sink.split, %2, %58, %63, %ossl_param_is_empty.exit
  %.0 = phi i32 [ 1, %ossl_param_is_empty.exit ], [ 1, %63 ], [ 1, %58 ], [ 1, %2 ], [ 0, %ossl_param_is_empty.exit.thread.sink.split ]
  call void @llvm.lifetime.end.p0(i64 8, ptr nonnull %3) #5
  ret i32 %.0
}